target datalayout = "e-m:e-p270:32:32-p271:32:32-p272:64:64-i64:64-i128:128-f80:128-n8:16:32:64-S128"
target triple = "x86_64-pc-linux-gnu"

; Function Attrs: nounwind uwtable
define void @png_save_uint_32(ptr noundef %0, i32 noundef %1) #0 {
  %3 = alloca ptr, align 8
  %4 = alloca i32, align 4
  store ptr %0, ptr %3, align 8, !tbaa !3
  store i32 %1, ptr %4, align 4, !tbaa !8
  %5 = load i32, ptr %4, align 4, !tbaa !8
  %6 = lshr i32 %5, 24
  %7 = and i32 %6, 255
  %8 = trunc i32 %7 to i8
  %9 = load ptr, ptr %3, align 8, !tbaa !3
  %10 = getelementptr inbounds i8, ptr %9, i64 0
  store i8 %8, ptr %10, align 1, !tbaa !10
  %11 = load i32, ptr %4, align 4, !tbaa !8
  %12 = lshr i32 %11, 16
  %13 = and i32 %12, 255
  %14 = trunc i32 %13 to i8
  %15 = load ptr, ptr %3, align 8, !tbaa !3
  %16 = getelementptr inbounds i8, ptr %15, i64 1
  store i8 %14, ptr %16, align 1, !tbaa !10
  %17 = load i32, ptr %4, align 4, !tbaa !8
  %18 = lshr i32 %17, 8
  %19 = and i32 %18, 255
  %20 = trunc i32 %19 to i8
  %21 = load ptr, ptr %3, align 8, !tbaa !3
  %22 = getelementptr inbounds i8, ptr %21, i64 2
  store i8 %20, ptr %22, align 1, !tbaa !10
  %23 = load i32, ptr %4, align 4, !tbaa !8
  %24 = and i32 %23, 255
  %25 = trunc i32 %24 to i8
  %26 = load ptr, ptr %3, align 8, !tbaa !3
  %27 = getelementptr inbounds i8, ptr %26, i64 3
  store i8 %25, ptr %27, align 1, !tbaa !10
  ret void
}

; Function Attrs: nounwind uwtable
define void @png_write_gAMA_fixed(ptr noalias noundef %0, i32 noundef %1) #0 {
  %3 = alloca ptr, align 8
  %4 = alloca i32, align 4
  %5 = alloca [4 x i8], align 1
  store ptr %0, ptr %3, align 8, !tbaa !11
  store i32 %1, ptr %4, align 4, !tbaa !8
  call void @llvm.lifetime.start.p0(i64 4, ptr %5) #7
  %6 = getelementptr inbounds [4 x i8], ptr %5, i64 0, i64 0
  %7 = load i32, ptr %4, align 4, !tbaa !8
  call void @png_save_uint_32(ptr noundef %6, i32 noundef %7)
  %8 = load ptr, ptr %3, align 8, !tbaa !11
  %9 = getelementptr inbounds [4 x i8], ptr %5, i64 0, i64 0
  call void @png_write_complete_chunk(ptr noundef %8, i32 noundef 1732332865, ptr noundef %9, i64 noundef 4)
  call void @llvm.lifetime.end.p0(i64 4, ptr %5) #7
  ret void
}