; Function Attrs: nounwind uwtable
define void @png_write_gAMA_fixed(ptr noalias noundef %0, i32 noundef %1) local_unnamed_addr #1 {
  %3 = alloca [4 x i8], align 1
  call void @llvm.lifetime.start.p0(i64 4, ptr nonnull %3) #12
  %4 = lshr i32 %1, 24
  %5 = trunc nuw i32 %4 to i8
  store i8 %5, ptr %3, align 1, !tbaa !3
  %6 = lshr i32 %1, 16
  %7 = trunc i32 %6 to i8
  %8 = getelementptr inbounds nuw i8, ptr %3, i64 1
  store i8 %7, ptr %8, align 1, !tbaa !3
  %9 = lshr i32 %1, 8
  %10 = trunc i32 %9 to i8
  %11 = getelementptr inbounds nuw i8, ptr %3, i64 2
  store i8 %10, ptr %11, align 1, !tbaa !3
  %12 = trunc i32 %1 to i8
  %13 = getelementptr inbounds nuw i8, ptr %3, i64 3
  store i8 %12, ptr %13, align 1, !tbaa !3
  call fastcc void @png_write_complete_chunk(ptr noundef %0, i32 noundef 1732332865, ptr noundef nonnull %3, i64 noundef 4)
  call void @llvm.lifetime.end.p0(i64 4, ptr nonnull %3) #12
  ret void
}